target datalayout = "e-m:e-p270:32:32-p271:32:32-p272:64:64-i64:64-i128:128-f80:128-n8:16:32:64-S128"
target triple = "x86_64-pc-linux-gnu"

%struct.IRType1 = type { i8 }
%struct.ASMState = type { [32 x i32], ptr, ptr, ptr, ptr, %struct.x86ModRM, i32, i32, i32, i32, i32, i32, i32, i32, i32, i32, i32, i32, i32, i32, i32, i32, i64, i64, i32, i32, i32, i32, i32, ptr, ptr, ptr, ptr, ptr, ptr, ptr, ptr, ptr, [32 x i16], [250 x i16] }
%struct.x86ModRM = type { i32, i8, i8, i8 }
%struct.anon.0 = type { i32, %struct.IRType1, i8, i8, i8 }

; Function Attrs: nounwind uwtable
define internal i32 @ra_spill(ptr noundef %0, ptr noundef %1) #0 {
  %3 = alloca ptr, align 8
  %4 = alloca ptr, align 8
  %5 = alloca i32, align 4
  store ptr %0, ptr %3, align 8, !tbaa !33
  store ptr %1, ptr %4, align 8, !tbaa !37
  call void @llvm.lifetime.start.p0(i64 4, ptr %5) #11
  %6 = load ptr, ptr %4, align 8, !tbaa !37
  %7 = getelementptr inbounds nuw %struct.anon.0, ptr %6, i32 0, i32 4
  %8 = load i8, ptr %7, align 1, !tbaa !25
  %9 = zext i8 %8 to i32
  store i32 %9, ptr %5, align 4, !tbaa !11
  %10 = load i32, ptr %5, align 4, !tbaa !11
  %11 = icmp ne i32 %10, 0
  br i1 %11, label %68, label %12

12:                                               ; preds = %2
  %13 = load ptr, ptr %4, align 8, !tbaa !37
  %14 = getelementptr inbounds nuw %struct.anon.0, ptr %13, i32 0, i32 1
  %15 = getelementptr inbounds nuw %struct.IRType1, ptr %14, i32 0, i32 0
  %16 = load i8, ptr %15, align 4, !tbaa !25
  %17 = zext i8 %16 to i32
  %18 = and i32 %17, 31
  %19 = lshr i32 6315993, %18
  %20 = and i32 %19, 1
  %21 = icmp ne i32 %20, 0
  br i1 %21, label %22, label %30

22:                                               ; preds = %12
  %23 = load ptr, ptr %3, align 8, !tbaa !33
  %24 = getelementptr inbounds nuw %struct.ASMState, ptr %23, i32 0, i32 12
  %25 = load i32, ptr %24, align 8, !tbaa !103
  store i32 %25, ptr %5, align 4, !tbaa !11
  %26 = load ptr, ptr %3, align 8, !tbaa !33
  %27 = getelementptr inbounds nuw %struct.ASMState, ptr %26, i32 0, i32 12
  %28 = load i32, ptr %27, align 8, !tbaa !103
  %29 = add nsw i32 %28, 2
  store i32 %29, ptr %27, align 8, !tbaa !103
  br label %54

30:                                               ; preds = %12
  %31 = load ptr, ptr %3, align 8, !tbaa !33
  %32 = getelementptr inbounds nuw %struct.ASMState, ptr %31, i32 0, i32 13
  %33 = load i32, ptr %32, align 4, !tbaa !110
  %34 = icmp ne i32 %33, 0
  br i1 %34, label %35, label %41

35:                                               ; preds = %30
  %36 = load ptr, ptr %3, align 8, !tbaa !33
  %37 = getelementptr inbounds nuw %struct.ASMState, ptr %36, i32 0, i32 13
  %38 = load i32, ptr %37, align 4, !tbaa !110
  store i32 %38, ptr %5, align 4, !tbaa !11
  %39 = load ptr, ptr %3, align 8, !tbaa !33
  %40 = getelementptr inbounds nuw %struct.ASMState, ptr %39, i32 0, i32 13
  store i32 0, ptr %40, align 4, !tbaa !110
  br label %53

41:                                               ; preds = %30
  %42 = load ptr, ptr %3, align 8, !tbaa !33
  %43 = getelementptr inbounds nuw %struct.ASMState, ptr %42, i32 0, i32 12
  %44 = load i32, ptr %43, align 8, !tbaa !103
  store i32 %44, ptr %5, align 4, !tbaa !11
  %45 = load i32, ptr %5, align 4, !tbaa !11
  %46 = add nsw i32 %45, 1
  %47 = load ptr, ptr %3, align 8, !tbaa !33
  %48 = getelementptr inbounds nuw %struct.ASMState, ptr %47, i32 0, i32 13
  store i32 %46, ptr %48, align 4, !tbaa !110
  %49 = load ptr, ptr %3, align 8, !tbaa !33
  %50 = getelementptr inbounds nuw %struct.ASMState, ptr %49, i32 0, i32 12
  %51 = load i32, ptr %50, align 8, !tbaa !103
  %52 = add nsw i32 %51, 2
  store i32 %52, ptr %50, align 8, !tbaa !103
  br label %53

53:                                               ; preds = %41, %35
  br label %54

54:                                               ; preds = %53, %22
  %55 = load ptr, ptr %3, align 8, !tbaa !33
  %56 = getelementptr inbounds nuw %struct.ASMState, ptr %55, i32 0, i32 12
  %57 = load i32, ptr %56, align 8, !tbaa !103
  %58 = icmp sgt i32 %57, 256
  br i1 %58, label %59, label %63

59:                                               ; preds = %54
  %60 = load ptr, ptr %3, align 8, !tbaa !33
  %61 = getelementptr inbounds nuw %struct.ASMState, ptr %60, i32 0, i32 4
  %62 = load ptr, ptr %61, align 8, !tbaa !51
  call void @lj_trace_err(ptr noundef %62, i32 noundef 30) #12
  unreachable

63:                                               ; preds = %54
  %64 = load i32, ptr %5, align 4, !tbaa !11
  %65 = trunc i32 %64 to i8
  %66 = load ptr, ptr %4, align 8, !tbaa !37
  %67 = getelementptr inbounds nuw %struct.anon.0, ptr %66, i32 0, i32 4
  store i8 %65, ptr %67, align 1, !tbaa !25
  br label %68

68:                                               ; preds = %63, %2
  %69 = load i32, ptr %5, align 4, !tbaa !11
  %70 = mul nsw i32 4, %69
  call void @llvm.lifetime.end.p0(i64 4, ptr %5) #11
  ret i32 %70
}