; Function Attrs: nounwind uwtable
define internal fastcc range(i32 -2147483648, 2147483645) i32 @ra_spill(ptr noundef nonnull captures(none) %0, ptr noundef captures(none) %1) unnamed_addr #0 {
  %3 = getelementptr inbounds nuw i8, ptr %1, i64 7
  %4 = load i8, ptr %3, align 1, !tbaa !20
  %5 = zext i8 %4 to i32
  %.not = icmp eq i8 %4, 0
  br i1 %.not, label %6, label %34

6:                                                ; preds = %2
  %7 = getelementptr inbounds nuw i8, ptr %1, i64 4
  %8 = load i8, ptr %7, align 4, !tbaa !20
  %9 = and i8 %8, 31
  %10 = zext nneg i8 %9 to i32
  %11 = shl nuw i32 1, %10
  %12 = and i32 %11, 6315993
  %.not18 = icmp eq i32 %12, 0
  br i1 %.not18, label %17, label %13

13:                                               ; preds = %6
  %14 = getelementptr inbounds nuw i8, ptr %0, i64 192
  %15 = load i32, ptr %14, align 8, !tbaa !93
  %16 = add nsw i32 %15, 2
  store i32 %16, ptr %14, align 8, !tbaa !93
  br label %26

17:                                               ; preds = %6
  %18 = getelementptr inbounds nuw i8, ptr %0, i64 196
  %19 = load i32, ptr %18, align 4, !tbaa !100
  %.not19 = icmp eq i32 %19, 0
  br i1 %.not19, label %21, label %20

20:                                               ; preds = %17
  store i32 0, ptr %18, align 4, !tbaa !100
  %.phi.trans.insert = getelementptr inbounds nuw i8, ptr %0, i64 192
  %.pre = load i32, ptr %.phi.trans.insert, align 8, !tbaa !93
  br label %26

21:                                               ; preds = %17
  %22 = getelementptr inbounds nuw i8, ptr %0, i64 192
  %23 = load i32, ptr %22, align 8, !tbaa !93
  %24 = add nsw i32 %23, 1
  store i32 %24, ptr %18, align 4, !tbaa !100
  %25 = add nsw i32 %23, 2
  store i32 %25, ptr %22, align 8, !tbaa !93
  br label %26

26:                                               ; preds = %20, %21, %13
  %27 = phi i32 [ %16, %13 ], [ %.pre, %20 ], [ %25, %21 ]
  %.1 = phi i32 [ %15, %13 ], [ %19, %20 ], [ %23, %21 ]
  %28 = icmp sgt i32 %27, 256
  br i1 %28, label %29, label %32

29:                                               ; preds = %26
  %30 = getelementptr inbounds nuw i8, ptr %0, i64 152
  %31 = load ptr, ptr %30, align 8, !tbaa !44
  tail call void @lj_trace_err(ptr noundef %31, i32 noundef 30) #15
  unreachable

32:                                               ; preds = %26
  %33 = trunc i32 %.1 to i8
  store i8 %33, ptr %3, align 1, !tbaa !20
  br label %34

34:                                               ; preds = %32, %2
  %.0 = phi i32 [ %5, %2 ], [ %.1, %32 ]
  %35 = shl nsw i32 %.0, 2
  ret i32 %35
}